target datalayout = "e-m:e-p270:32:32-p271:32:32-p272:64:64-i64:64-i128:128-f80:128-n8:16:32:64-S128"
target triple = "x86_64-pc-linux-gnu"

%struct.ieee802154_key_t = type { ptr, i32, i32, [16 x i8], [16 x i8] }
%struct._GByteArray = type { ptr, i32 }

@.str.1149 = private unnamed_addr constant [12 x i8] c"Invalid key\00", align 1
@.str.1150 = private unnamed_addr constant [30 x i8] c"Key must be at least %d bytes\00", align 1

; Function Attrs: null_pointer_is_valid sspstrong uwtable
define internal zeroext i1 @ieee802154_key_update_cb(ptr noundef %0, ptr noundef %1) #0 {
  %3 = alloca i1, align 1
  %4 = alloca ptr, align 8
  %5 = alloca ptr, align 8
  %6 = alloca ptr, align 8
  %7 = alloca ptr, align 8
  %8 = alloca i32, align 4
  store ptr %0, ptr %4, align 8
  store ptr %1, ptr %5, align 8
  call void @llvm.lifetime.start.p0(i64 8, ptr %6) #17
  %9 = load ptr, ptr %4, align 8
  store ptr %9, ptr %6, align 8
  call void @llvm.lifetime.start.p0(i64 8, ptr %7) #17
  %10 = load ptr, ptr %6, align 8
  %11 = getelementptr inbounds nuw %struct.ieee802154_key_t, ptr %10, i32 0, i32 2
  %12 = load i32, ptr %11, align 4
  switch i32 %12, label %40 [
    i32 0, label %13
    i32 1, label %13
    i32 2, label %40
  ]

13:                                               ; preds = %2, %2
  %14 = call ptr @g_byte_array_new()
  store ptr %14, ptr %7, align 8
  %15 = load ptr, ptr %6, align 8
  %16 = getelementptr inbounds nuw %struct.ieee802154_key_t, ptr %15, i32 0, i32 0
  %17 = load ptr, ptr %16, align 8
  %18 = load ptr, ptr %7, align 8
  %19 = call zeroext i1 @hex_str_to_bytes(ptr noundef %17, ptr noundef %18, i1 noundef zeroext false)
  %20 = zext i1 %19 to i32
  %21 = icmp eq i32 %20, 0
  br i1 %21, label %22, label %27

22:                                               ; preds = %13
  %23 = call noalias ptr @g_strdup(ptr noundef @.str.1149)
  %24 = load ptr, ptr %5, align 8
  store ptr %23, ptr %24, align 8
  %25 = load ptr, ptr %7, align 8
  %26 = call ptr @g_byte_array_free(ptr noundef %25, i32 noundef 1)
  store i1 false, ptr %3, align 1
  store i32 1, ptr %8, align 4
  br label %41

27:                                               ; preds = %13
  %28 = load ptr, ptr %7, align 8
  %29 = getelementptr inbounds nuw %struct._GByteArray, ptr %28, i32 0, i32 1
  %30 = load i32, ptr %29, align 8
  %31 = icmp ult i32 %30, 16
  br i1 %31, label %32, label %37

32:                                               ; preds = %27
  %33 = call noalias ptr (ptr, ptr, ...) @wmem_strdup_printf(ptr noundef null, ptr noundef @.str.1150, i32 noundef 16)
  %34 = load ptr, ptr %5, align 8
  store ptr %33, ptr %34, align 8
  %35 = load ptr, ptr %7, align 8
  %36 = call ptr @g_byte_array_free(ptr noundef %35, i32 noundef 1)
  store i1 false, ptr %3, align 1
  store i32 1, ptr %8, align 4
  br label %41

37:                                               ; preds = %27
  %38 = load ptr, ptr %7, align 8
  %39 = call ptr @g_byte_array_free(ptr noundef %38, i32 noundef 1)
  br label %40

40:                                               ; preds = %2, %2, %37
  store i1 true, ptr %3, align 1
  store i32 1, ptr %8, align 4
  br label %41

41:                                               ; preds = %40, %32, %22
  call void @llvm.lifetime.end.p0(i64 8, ptr %7) #17
  call void @llvm.lifetime.end.p0(i64 8, ptr %6) #17
  %42 = load i1, ptr %3, align 1
  ret i1 %42
}