; Function Attrs: null_pointer_is_valid sspstrong uwtable
define internal noundef zeroext i1 @ieee802154_key_update_cb(ptr noundef readonly captures(none) %0, ptr noundef writeonly captures(none) %1) #0 {
  %3 = getelementptr inbounds nuw i8, ptr %0, i64 12
  %4 = load i32, ptr %3, align 4
  %switch = icmp ult i32 %4, 2
  br i1 %switch, label %5, label %18

5:                                                ; preds = %2
  %6 = tail call ptr @g_byte_array_new()
  %7 = load ptr, ptr %0, align 8
  %8 = tail call zeroext i1 @hex_str_to_bytes(ptr noundef %7, ptr noundef %6, i1 noundef zeroext false)
  br i1 %8, label %11, label %9

9:                                                ; preds = %5
  %10 = tail call noalias ptr @g_strdup(ptr noundef nonnull @.str.1149)
  br label %.sink.split.sink.split

11:                                               ; preds = %5
  %12 = getelementptr inbounds nuw i8, ptr %6, i64 8
  %13 = load i32, ptr %12, align 8
  %14 = icmp ult i32 %13, 16
  br i1 %14, label %15, label %.sink.split

15:                                               ; preds = %11
  %16 = tail call noalias ptr (ptr, ptr, ...) @wmem_strdup_printf(ptr noundef null, ptr noundef nonnull @.str.1150, i32 noundef 16)
  br label %.sink.split.sink.split

.sink.split.sink.split:                           ; preds = %15, %9
  %.sink = phi ptr [ %10, %9 ], [ %16, %15 ]
  store ptr %.sink, ptr %1, align 8
  br label %.sink.split

.sink.split:                                      ; preds = %.sink.split.sink.split, %11
  %.0.ph = phi i1 [ true, %11 ], [ false, %.sink.split.sink.split ]
  %17 = tail call ptr @g_byte_array_free(ptr noundef %6, i32 noundef 1)
  br label %18

18:                                               ; preds = %.sink.split, %2
  %.0 = phi i1 [ true, %2 ], [ %.0.ph, %.sink.split ]
  ret i1 %.0
}